target datalayout = "e-m:e-p270:32:32-p271:32:32-p272:64:64-i64:64-i128:128-f80:128-n8:16:32:64-S128"
target triple = "x86_64-unknown-linux-gnu"

%struct.QObject = type { %struct.QObjectBase_ }
%struct.QObjectBase_ = type { i32, i64 }
%struct.QDictEntry = type { ptr, ptr, %struct.anon }
%struct.anon = type { ptr, ptr }

; Function Attrs: nounwind sspstrong uwtable
define internal void @qobject_ref_impl(ptr noundef %obj) #0 {
entry:
  %obj.addr = alloca ptr, align 8
  store ptr %obj, ptr %obj.addr, align 8
  %0 = load ptr, ptr %obj.addr, align 8
  %tobool = icmp ne ptr %0, null
  br i1 %tobool, label %if.then, label %if.end

if.then:                                          ; preds = %entry
  %1 = load ptr, ptr %obj.addr, align 8
  %base = getelementptr inbounds %struct.QObject, ptr %1, i32 0, i32 0
  %refcnt = getelementptr inbounds %struct.QObjectBase_, ptr %base, i32 0, i32 1
  %2 = load i64, ptr %refcnt, align 8
  %inc = add i64 %2, 1
  store i64 %inc, ptr %refcnt, align 8
  br label %if.end

if.end:                                           ; preds = %if.then, %entry
  ret void
}

; Function Attrs: nounwind sspstrong uwtable
define dso_local void @qdict_extract_subqdict(ptr noundef %src, ptr noundef %dst, ptr noundef %start) #0 {
entry:
  %src.addr = alloca ptr, align 8
  %dst.addr = alloca ptr, align 8
  %start.addr = alloca ptr, align 8
  %entry1 = alloca ptr, align 8
  %next = alloca ptr, align 8
  %p = alloca ptr, align 8
  %_o = alloca ptr, align 8
  %_obj3 = alloca ptr, align 8
  %tmp = alloca ptr, align 8
  %__mptr = alloca ptr, align 8
  %tmp10 = alloca ptr, align 8
  %tmp11 = alloca ptr, align 8
  store ptr %src, ptr %src.addr, align 8
  store ptr %dst, ptr %dst.addr, align 8
  store ptr %start, ptr %start.addr, align 8
  %0 = load ptr, ptr %dst.addr, align 8
  %tobool = icmp ne ptr %0, null
  br i1 %tobool, label %if.then, label %if.end

if.then:                                          ; preds = %entry
  %call = call ptr @qdict_new()
  %1 = load ptr, ptr %dst.addr, align 8
  store ptr %call, ptr %1, align 8
  br label %if.end

if.end:                                           ; preds = %if.then, %entry
  %2 = load ptr, ptr %src.addr, align 8
  %call2 = call ptr @qdict_first(ptr noundef %2)
  store ptr %call2, ptr %entry1, align 8
  br label %while.cond

while.cond:                                       ; preds = %if.end14, %if.end
  %3 = load ptr, ptr %entry1, align 8
  %cmp = icmp ne ptr %3, null
  br i1 %cmp, label %while.body, label %while.end

while.body:                                       ; preds = %while.cond
  %4 = load ptr, ptr %src.addr, align 8
  %5 = load ptr, ptr %entry1, align 8
  %call3 = call ptr @qdict_next(ptr noundef %4, ptr noundef %5)
  store ptr %call3, ptr %next, align 8
  %6 = load ptr, ptr %entry1, align 8
  %key = getelementptr inbounds %struct.QDictEntry, ptr %6, i32 0, i32 0
  %7 = load ptr, ptr %key, align 8
  %8 = load ptr, ptr %start.addr, align 8
  %call4 = call i32 @strstart(ptr noundef %7, ptr noundef %8, ptr noundef %p)
  %tobool5 = icmp ne i32 %call4, 0
  br i1 %tobool5, label %if.then6, label %if.end14

if.then6:                                         ; preds = %while.body
  %9 = load ptr, ptr %dst.addr, align 8
  %tobool7 = icmp ne ptr %9, null
  br i1 %tobool7, label %if.then8, label %if.end12

if.then8:                                         ; preds = %if.then6
  %10 = load ptr, ptr %dst.addr, align 8
  %11 = load ptr, ptr %10, align 8
  %12 = load ptr, ptr %p, align 8
  %13 = load ptr, ptr %entry1, align 8
  %value = getelementptr inbounds %struct.QDictEntry, ptr %13, i32 0, i32 1
  %14 = load ptr, ptr %value, align 8
  store ptr %14, ptr %_o, align 8
  %15 = load ptr, ptr %_o, align 8
  store ptr %15, ptr %_obj3, align 8
  %16 = load ptr, ptr %_obj3, align 8
  %tobool9 = icmp ne ptr %16, null
  br i1 %tobool9, label %cond.true, label %cond.false

cond.true:                                        ; preds = %if.then8
  %17 = load ptr, ptr %_obj3, align 8
  %base = getelementptr inbounds %struct.QObject, ptr %17, i32 0, i32 0
  store ptr %base, ptr %__mptr, align 8
  %18 = load ptr, ptr %__mptr, align 8
  %add.ptr = getelementptr i8, ptr %18, i64 0
  store ptr %add.ptr, ptr %tmp10, align 8
  %19 = load ptr, ptr %tmp10, align 8
  br label %cond.end

cond.false:                                       ; preds = %if.then8
  br label %cond.end

cond.end:                                         ; preds = %cond.false, %cond.true
  %cond = phi ptr [ %19, %cond.true ], [ null, %cond.false ]
  store ptr %cond, ptr %tmp, align 8
  %20 = load ptr, ptr %tmp, align 8
  call void @qobject_ref_impl(ptr noundef %20)
  %21 = load ptr, ptr %_o, align 8
  store ptr %21, ptr %tmp11, align 8
  %22 = load ptr, ptr %tmp11, align 8
  call void @qdict_put_obj(ptr noundef %11, ptr noundef %12, ptr noundef %22)
  br label %if.end12

if.end12:                                         ; preds = %cond.end, %if.then6
  %23 = load ptr, ptr %src.addr, align 8
  %24 = load ptr, ptr %entry1, align 8
  %key13 = getelementptr inbounds %struct.QDictEntry, ptr %24, i32 0, i32 0
  %25 = load ptr, ptr %key13, align 8
  call void @qdict_del(ptr noundef %23, ptr noundef %25)
  br label %if.end14

if.end14:                                         ; preds = %if.end12, %while.body
  %26 = load ptr, ptr %next, align 8
  store ptr %26, ptr %entry1, align 8
  br label %while.cond, !llvm.loop !7

while.end:                                        ; preds = %while.cond
  ret void
}