; Function Attrs: nounwind sspstrong uwtable
define dso_local void @qdict_extract_subqdict(ptr noundef %src, ptr noundef %dst, ptr noundef %start) local_unnamed_addr #0 {
entry:
  %p = alloca ptr, align 8
  %tobool.not = icmp eq ptr %dst, null
  br i1 %tobool.not, label %if.end, label %if.end.thread

if.end:                                           ; preds = %entry
  %call2 = tail call ptr @qdict_first(ptr noundef %src) #7
  %cmp.not12 = icmp eq ptr %call2, null
  br i1 %cmp.not12, label %while.end, label %while.body.us

if.end.thread:                                    ; preds = %entry
  %call = tail call ptr @qdict_new() #7
  store ptr %call, ptr %dst, align 8
  %call215 = tail call ptr @qdict_first(ptr noundef %src) #7
  %cmp.not1216 = icmp eq ptr %call215, null
  br i1 %cmp.not1216, label %while.end, label %while.body

while.body.us:                                    ; preds = %if.end, %if.end14.us
  %entry1.013.us = phi ptr [ %call3.us, %if.end14.us ], [ %call2, %if.end ]
  %call3.us = call ptr @qdict_next(ptr noundef %src, ptr noundef nonnull %entry1.013.us) #7
  %0 = load ptr, ptr %entry1.013.us, align 8
  %call4.us = call i32 @strstart(ptr noundef %0, ptr noundef %start, ptr noundef nonnull %p) #7
  %tobool5.not.us = icmp eq i32 %call4.us, 0
  br i1 %tobool5.not.us, label %if.end14.us, label %if.then6.us

if.then6.us:                                      ; preds = %while.body.us
  %1 = load ptr, ptr %entry1.013.us, align 8
  call void @qdict_del(ptr noundef %src, ptr noundef %1) #7
  br label %if.end14.us

if.end14.us:                                      ; preds = %if.then6.us, %while.body.us
  %cmp.not.us = icmp eq ptr %call3.us, null
  br i1 %cmp.not.us, label %while.end, label %while.body.us, !llvm.loop !7

while.body:                                       ; preds = %if.end.thread, %if.end14
  %entry1.013 = phi ptr [ %call3, %if.end14 ], [ %call215, %if.end.thread ]
  %call3 = call ptr @qdict_next(ptr noundef %src, ptr noundef nonnull %entry1.013) #7
  %2 = load ptr, ptr %entry1.013, align 8
  %call4 = call i32 @strstart(ptr noundef %2, ptr noundef %start, ptr noundef nonnull %p) #7
  %tobool5.not = icmp eq i32 %call4, 0
  br i1 %tobool5.not, label %if.end14, label %if.then6

if.then6:                                         ; preds = %while.body
  %3 = load ptr, ptr %dst, align 8
  %4 = load ptr, ptr %p, align 8
  %value = getelementptr inbounds nuw i8, ptr %entry1.013, i64 8
  %5 = load ptr, ptr %value, align 8
  %tobool9.not = icmp eq ptr %5, null
  br i1 %tobool9.not, label %qobject_ref_impl.exit, label %if.then.i

if.then.i:                                        ; preds = %if.then6
  %refcnt.i = getelementptr inbounds nuw i8, ptr %5, i64 8
  %6 = load i64, ptr %refcnt.i, align 8
  %inc.i = add i64 %6, 1
  store i64 %inc.i, ptr %refcnt.i, align 8
  br label %qobject_ref_impl.exit

qobject_ref_impl.exit:                            ; preds = %if.then6, %if.then.i
  call void @qdict_put_obj(ptr noundef %3, ptr noundef %4, ptr noundef %5) #7
  %7 = load ptr, ptr %entry1.013, align 8
  call void @qdict_del(ptr noundef %src, ptr noundef %7) #7
  br label %if.end14

if.end14:                                         ; preds = %qobject_ref_impl.exit, %while.body
  %cmp.not = icmp eq ptr %call3, null
  br i1 %cmp.not, label %while.end, label %while.body, !llvm.loop !7

while.end:                                        ; preds = %if.end14, %if.end14.us, %if.end.thread, %if.end
  ret void
}